target datalayout = "e-m:e-p270:32:32-p271:32:32-p272:64:64-i64:64-i128:128-f80:128-n8:16:32:64-S128"
target triple = "x86_64-pc-linux-gnu"

%"class.google::protobuf::io::ArrayOutputStream" = type { %"class.google::protobuf::io::ZeroCopyOutputStream", ptr, i32, i32, i32, i32 }
%"class.google::protobuf::io::ZeroCopyOutputStream" = type { ptr }

@_ZTVN6google8protobuf2io20ZeroCopyOutputStreamE = external unnamed_addr constant { [9 x ptr] }, align 8

; Function Attrs: mustprogress nounwind uwtable
define linkonce_odr void @_ZN6google8protobuf2io20ZeroCopyOutputStreamC2Ev(ptr noundef nonnull align 8 dereferenceable(8) %0) unnamed_addr #5 comdat align 2 {
  %2 = alloca ptr, align 8
  store ptr %0, ptr %2, align 8
  %3 = load ptr, ptr %2, align 8
  store ptr getelementptr inbounds inrange(-16, 56) ({ [9 x ptr] }, ptr @_ZTVN6google8protobuf2io20ZeroCopyOutputStreamE, i32 0, i32 0, i32 2), ptr %3, align 8
  ret void
}

; Function Attrs: mustprogress uwtable
define void @_ZN6google8protobuf2io17ArrayOutputStreamC2EPvii(ptr noundef nonnull align 8 dereferenceable(32) %0, ptr noundef %1, i32 noundef %2, i32 noundef %3) unnamed_addr #4 align 2 {
  %5 = alloca ptr, align 8
  %6 = alloca ptr, align 8
  %7 = alloca i32, align 4
  %8 = alloca i32, align 4
  store ptr %0, ptr %5, align 8
  store ptr %1, ptr %6, align 8
  store i32 %2, ptr %7, align 4
  store i32 %3, ptr %8, align 4
  %9 = load ptr, ptr %5, align 8
  call void @_ZN6google8protobuf2io20ZeroCopyOutputStreamC2Ev(ptr noundef nonnull align 8 dereferenceable(8) %9)
  store ptr getelementptr inbounds inrange(-16, 56) ({ [9 x ptr] }, ptr @_ZTVN6google8protobuf2io17ArrayOutputStreamE, i32 0, i32 0, i32 2), ptr %9, align 8
  %10 = getelementptr inbounds %"class.google::protobuf::io::ArrayOutputStream", ptr %9, i32 0, i32 1
  %11 = load ptr, ptr %6, align 8
  store ptr %11, ptr %10, align 8
  %12 = getelementptr inbounds %"class.google::protobuf::io::ArrayOutputStream", ptr %9, i32 0, i32 2
  %13 = load i32, ptr %7, align 4
  store i32 %13, ptr %12, align 8
  %14 = getelementptr inbounds %"class.google::protobuf::io::ArrayOutputStream", ptr %9, i32 0, i32 3
  %15 = load i32, ptr %8, align 4
  %16 = icmp sgt i32 %15, 0
  br i1 %16, label %17, label %19

17:                                               ; preds = %4
  %18 = load i32, ptr %8, align 4
  br label %21

19:                                               ; preds = %4
  %20 = load i32, ptr %7, align 4
  br label %21

21:                                               ; preds = %19, %17
  %22 = phi i32 [ %18, %17 ], [ %20, %19 ]
  store i32 %22, ptr %14, align 4
  %23 = getelementptr inbounds %"class.google::protobuf::io::ArrayOutputStream", ptr %9, i32 0, i32 4
  store i32 0, ptr %23, align 8
  %24 = getelementptr inbounds %"class.google::protobuf::io::ArrayOutputStream", ptr %9, i32 0, i32 5
  store i32 0, ptr %24, align 4
  ret void
}